; Function Attrs: null_pointer_is_valid sspstrong uwtable
define internal i32 @samr_dissect_GetAliasMembership_request(ptr noundef %0, i32 noundef %1, ptr noundef %2, ptr noundef %3, ptr noundef initializes((72, 80)) %4, ptr noundef %5) #0 {
  %7 = getelementptr inbounds nuw i8, ptr %4, i64 72
  store ptr @.str.1222, ptr %7, align 8
  %8 = load i32, ptr @hf_samr_domain_handle, align 4
  %9 = tail call i32 @dissect_ndr_toplevel_pointer(ptr noundef %0, i32 noundef %1, ptr noundef %2, ptr noundef %3, ptr noundef %4, ptr noundef %5, ptr noundef nonnull @samr_dissect_element_GetAliasMembership_domain_handle_, i32 noundef 1, ptr noundef nonnull @.str.1293, i32 noundef %8)
  %10 = tail call i32 @dissect_deferred_pointers(ptr noundef %2, ptr noundef %0, i32 noundef %9, ptr noundef %4, ptr noundef %5)
  %11 = load i32, ptr @hf_samr_samr_GetAliasMembership_sids, align 4
  %12 = tail call i32 @dissect_ndr_toplevel_pointer(ptr noundef %0, i32 noundef %10, ptr noundef %2, ptr noundef %3, ptr noundef %4, ptr noundef %5, ptr noundef nonnull @samr_dissect_element_GetAliasMembership_sids_, i32 noundef 1, ptr noundef nonnull @.str.1303, i32 noundef %11)
  %13 = tail call i32 @dissect_deferred_pointers(ptr noundef %2, ptr noundef %0, i32 noundef %12, ptr noundef %4, ptr noundef %5)
  ret i32 %13
}